; Function Attrs: nofree norecurse nosync nounwind memory(read, inaccessiblemem: none) uwtable
define i32 @Abc_NtkCountTotalFanins(ptr noundef readonly captures(none) %0, ptr noundef readonly captures(none) %1) local_unnamed_addr #3 {
  %3 = getelementptr i8, ptr %0, i64 28
  %.val9 = load i32, ptr %3, align 4, !tbaa !32
  %4 = getelementptr i8, ptr %1, i64 28
  %.val = load i32, ptr %4, align 4, !tbaa !32
  %5 = icmp sgt i32 %.val, 0
  br i1 %5, label %.lr.ph, label %.critedge

.lr.ph:                                           ; preds = %2
  %.val10 = load ptr, ptr %1, align 8, !tbaa !3
  %6 = getelementptr i8, ptr %1, i64 32
  %.val11 = load ptr, ptr %6, align 8, !tbaa !33
  %7 = getelementptr i8, ptr %.val10, i64 32
  %.val10.val = load ptr, ptr %7, align 8, !tbaa !34
  %8 = getelementptr i8, ptr %.val10.val, i64 8
  %.val10.val.val = load ptr, ptr %8, align 8, !tbaa !35
  %wide.trip.count = zext nneg i32 %.val to i64
  br label %9

9:                                                ; preds = %.lr.ph, %9
  %indvars.iv = phi i64 [ 0, %.lr.ph ], [ %indvars.iv.next, %9 ]
  %.013 = phi i32 [ %.val9, %.lr.ph ], [ %19, %9 ]
  %10 = getelementptr inbounds nuw i32, ptr %.val11, i64 %indvars.iv
  %11 = load i32, ptr %10, align 4, !tbaa !31
  %12 = sext i32 %11 to i64
  %13 = getelementptr inbounds ptr, ptr %.val10.val.val, i64 %12
  %14 = load ptr, ptr %13, align 8, !tbaa !37
  %15 = getelementptr inbounds nuw i8, ptr %14, i64 20
  %16 = load i32, ptr %15, align 4
  %17 = lshr i32 %16, 6
  %.lobit = and i32 %17, 1
  %18 = xor i32 %.lobit, 1
  %19 = add nsw i32 %18, %.013
  %indvars.iv.next = add nuw nsw i64 %indvars.iv, 1
  %exitcond.not = icmp eq i64 %indvars.iv.next, %wide.trip.count
  br i1 %exitcond.not, label %.critedge, label %9, !llvm.loop !58

.critedge:                                        ; preds = %9, %2
  %.0.lcssa = phi i32 [ %.val9, %2 ], [ %19, %9 ]
  ret i32 %.0.lcssa
}